; Function Attrs: mustprogress null_pointer_is_valid sspstrong uwtable
define internal noundef zeroext i1 @_ZL12AStartsWithBRK8QVariantS1_N2Qt15CaseSensitivityE(ptr noundef align 8 dereferenceable(32) %0, ptr noundef align 8 dereferenceable(32) %1, i32 noundef %2) unnamed_addr #0 personality ptr @__gxx_personality_v0 {
  %4 = alloca %class.QString, align 8
  %5 = alloca %class.QString, align 8
  %6 = getelementptr inbounds nuw i8, ptr %0, i64 24
  %7 = load i64, ptr %6, align 8
  %8 = and i64 %7, -4
  %9 = inttoptr i64 %8 to ptr
  %10 = tail call noundef zeroext i1 @_ZN9QMetaType10canConvertES_S_(ptr %9, ptr nonnull @_ZN9QtPrivate25QMetaTypeInterfaceWrapperI7QStringE8metaTypeE)
  br i1 %10, label %11, label %41

11:                                               ; preds = %3
  %12 = getelementptr inbounds nuw i8, ptr %1, i64 24
  %13 = load i64, ptr %12, align 8
  %14 = and i64 %13, -4
  %15 = inttoptr i64 %14 to ptr
  %16 = tail call noundef zeroext i1 @_ZN9QMetaType10canConvertES_S_(ptr %15, ptr nonnull @_ZN9QtPrivate25QMetaTypeInterfaceWrapperI7QStringE8metaTypeE)
  br i1 %16, label %17, label %41

17:                                               ; preds = %11
  call void @llvm.lifetime.start.p0(i64 24, ptr nonnull %4) #24
  call void @_ZNK8QVariant8toStringEv(ptr dead_on_unwind nonnull writable sret(%class.QString) align 8 %4, ptr noundef align 8 dereferenceable_or_null(32) %0)
  call void @llvm.lifetime.start.p0(i64 24, ptr nonnull %5) #24
  invoke void @_ZNK8QVariant8toStringEv(ptr dead_on_unwind nonnull writable sret(%class.QString) align 8 %5, ptr noundef align 8 dereferenceable_or_null(32) %1)
          to label %18 unwind label %29

18:                                               ; preds = %17
  %19 = invoke noundef zeroext i1 @_ZNK7QString10startsWithERKS_N2Qt15CaseSensitivityE(ptr noundef nonnull align 8 dereferenceable_or_null(24) %4, ptr noundef nonnull align 8 dereferenceable(24) %5, i32 noundef %2)
          to label %20 unwind label %31

20:                                               ; preds = %18
  %21 = load ptr, ptr %5, align 8
  %.not.i.i.i = icmp eq ptr %21, null
  br i1 %.not.i.i.i, label %_ZN7QStringD2Ev.exit, label %_ZN17QArrayDataPointerIDsE5derefEv.exit.i.i

_ZN17QArrayDataPointerIDsE5derefEv.exit.i.i:      ; preds = %20
  %22 = atomicrmw sub ptr %21, i32 1 seq_cst, align 4
  %.not.i.i = icmp eq i32 %22, 1
  br i1 %.not.i.i, label %23, label %_ZN7QStringD2Ev.exit

23:                                               ; preds = %_ZN17QArrayDataPointerIDsE5derefEv.exit.i.i
  %24 = load ptr, ptr %5, align 8
  call void @_ZN10QArrayData10deallocateEPS_xx(ptr noundef %24, i64 noundef 2, i64 noundef 8) #24
  br label %_ZN7QStringD2Ev.exit

_ZN7QStringD2Ev.exit:                             ; preds = %20, %_ZN17QArrayDataPointerIDsE5derefEv.exit.i.i, %23
  call void @llvm.lifetime.end.p0(i64 24, ptr nonnull %5) #24
  %25 = load ptr, ptr %4, align 8
  %.not.i.i.i10 = icmp eq ptr %25, null
  br i1 %.not.i.i.i10, label %_ZN7QStringD2Ev.exit13, label %_ZN17QArrayDataPointerIDsE5derefEv.exit.i.i11

_ZN17QArrayDataPointerIDsE5derefEv.exit.i.i11:    ; preds = %_ZN7QStringD2Ev.exit
  %26 = atomicrmw sub ptr %25, i32 1 seq_cst, align 4
  %.not.i.i12 = icmp eq i32 %26, 1
  br i1 %.not.i.i12, label %27, label %_ZN7QStringD2Ev.exit13

27:                                               ; preds = %_ZN17QArrayDataPointerIDsE5derefEv.exit.i.i11
  %28 = load ptr, ptr %4, align 8
  call void @_ZN10QArrayData10deallocateEPS_xx(ptr noundef %28, i64 noundef 2, i64 noundef 8) #24
  br label %_ZN7QStringD2Ev.exit13

_ZN7QStringD2Ev.exit13:                           ; preds = %_ZN7QStringD2Ev.exit, %_ZN17QArrayDataPointerIDsE5derefEv.exit.i.i11, %27
  call void @llvm.lifetime.end.p0(i64 24, ptr nonnull %4) #24
  br label %41

29:                                               ; preds = %17
  %30 = landingpad { ptr, i32 }
          cleanup
  br label %_ZN7QStringD2Ev.exit17

31:                                               ; preds = %18
  %32 = landingpad { ptr, i32 }
          cleanup
  %33 = load ptr, ptr %5, align 8
  %.not.i.i.i14 = icmp eq ptr %33, null
  br i1 %.not.i.i.i14, label %_ZN7QStringD2Ev.exit17, label %_ZN17QArrayDataPointerIDsE5derefEv.exit.i.i15

_ZN17QArrayDataPointerIDsE5derefEv.exit.i.i15:    ; preds = %31
  %34 = atomicrmw sub ptr %33, i32 1 seq_cst, align 4
  %.not.i.i16 = icmp eq i32 %34, 1
  br i1 %.not.i.i16, label %35, label %_ZN7QStringD2Ev.exit17

35:                                               ; preds = %_ZN17QArrayDataPointerIDsE5derefEv.exit.i.i15
  %36 = load ptr, ptr %5, align 8
  call void @_ZN10QArrayData10deallocateEPS_xx(ptr noundef %36, i64 noundef 2, i64 noundef 8) #24
  br label %_ZN7QStringD2Ev.exit17

_ZN7QStringD2Ev.exit17:                           ; preds = %35, %_ZN17QArrayDataPointerIDsE5derefEv.exit.i.i15, %31, %29
  %.pn = phi { ptr, i32 } [ %30, %29 ], [ %32, %31 ], [ %32, %_ZN17QArrayDataPointerIDsE5derefEv.exit.i.i15 ], [ %32, %35 ]
  call void @llvm.lifetime.end.p0(i64 24, ptr nonnull %5) #24
  %37 = load ptr, ptr %4, align 8
  %.not.i.i.i18 = icmp eq ptr %37, null
  br i1 %.not.i.i.i18, label %_ZN7QStringD2Ev.exit21, label %_ZN17QArrayDataPointerIDsE5derefEv.exit.i.i19

_ZN17QArrayDataPointerIDsE5derefEv.exit.i.i19:    ; preds = %_ZN7QStringD2Ev.exit17
  %38 = atomicrmw sub ptr %37, i32 1 seq_cst, align 4
  %.not.i.i20 = icmp eq i32 %38, 1
  br i1 %.not.i.i20, label %39, label %_ZN7QStringD2Ev.exit21

39:                                               ; preds = %_ZN17QArrayDataPointerIDsE5derefEv.exit.i.i19
  %40 = load ptr, ptr %4, align 8
  call void @_ZN10QArrayData10deallocateEPS_xx(ptr noundef %40, i64 noundef 2, i64 noundef 8) #24
  br label %_ZN7QStringD2Ev.exit21

_ZN7QStringD2Ev.exit21:                           ; preds = %_ZN7QStringD2Ev.exit17, %_ZN17QArrayDataPointerIDsE5derefEv.exit.i.i19, %39
  call void @llvm.lifetime.end.p0(i64 24, ptr nonnull %4) #24
  resume { ptr, i32 } %.pn

41:                                               ; preds = %3, %11, %_ZN7QStringD2Ev.exit13
  %.08 = phi i1 [ %19, %_ZN7QStringD2Ev.exit13 ], [ false, %11 ], [ false, %3 ]
  ret i1 %.08
}